target datalayout = "e-m:e-p270:32:32-p271:32:32-p272:64:64-i64:64-i128:128-f80:128-n8:16:32:64-S128"
target triple = "x86_64-pc-linux-gnu"

; Function Attrs: alwaysinline nounwind willreturn memory(none) uwtable
define internal zeroext i16 @av_bswap16(i16 noundef zeroext %0) #3 {
  %2 = alloca i16, align 2
  store i16 %0, ptr %2, align 2, !tbaa !22
  %3 = load i16, ptr %2, align 2, !tbaa !22
  %4 = zext i16 %3 to i32
  %5 = ashr i32 %4, 8
  %6 = load i16, ptr %2, align 2, !tbaa !22
  %7 = zext i16 %6 to i32
  %8 = shl i32 %7, 8
  %9 = or i32 %5, %8
  %10 = trunc i32 %9 to i16
  store i16 %10, ptr %2, align 2, !tbaa !22
  %11 = load i16, ptr %2, align 2, !tbaa !22
  ret i16 %11
}

; Function Attrs: nounwind uwtable
define void @rgb48tobgr64_bswap(ptr noundef %0, ptr noundef %1, i32 noundef %2) #0 {
  %4 = alloca ptr, align 8
  %5 = alloca ptr, align 8
  %6 = alloca i32, align 4
  %7 = alloca ptr, align 8
  %8 = alloca ptr, align 8
  %9 = alloca i32, align 4
  %10 = alloca i32, align 4
  store ptr %0, ptr %4, align 8, !tbaa !4
  store ptr %1, ptr %5, align 8, !tbaa !4
  store i32 %2, ptr %6, align 4, !tbaa !9
  call void @llvm.lifetime.start.p0(i64 8, ptr %7) #5
  %11 = load ptr, ptr %5, align 8, !tbaa !4
  store ptr %11, ptr %7, align 8, !tbaa !20
  call void @llvm.lifetime.start.p0(i64 8, ptr %8) #5
  %12 = load ptr, ptr %4, align 8, !tbaa !4
  store ptr %12, ptr %8, align 8, !tbaa !20
  call void @llvm.lifetime.start.p0(i64 4, ptr %9) #5
  call void @llvm.lifetime.start.p0(i64 4, ptr %10) #5
  %13 = load i32, ptr %6, align 4, !tbaa !9
  %14 = sdiv i32 %13, 6
  store i32 %14, ptr %10, align 4, !tbaa !9
  store i32 0, ptr %9, align 4, !tbaa !9
  br label %15

15:                                               ; preds = %72, %3
  %16 = load i32, ptr %9, align 4, !tbaa !9
  %17 = load i32, ptr %10, align 4, !tbaa !9
  %18 = icmp slt i32 %16, %17
  br i1 %18, label %19, label %75

19:                                               ; preds = %15
  %20 = load ptr, ptr %8, align 8, !tbaa !20
  %21 = load i32, ptr %9, align 4, !tbaa !9
  %22 = mul nsw i32 3, %21
  %23 = add nsw i32 %22, 2
  %24 = sext i32 %23 to i64
  %25 = getelementptr inbounds i16, ptr %20, i64 %24
  %26 = load i16, ptr %25, align 2, !tbaa !22
  %27 = call zeroext i16 @av_bswap16(i16 noundef zeroext %26) #7
  %28 = zext i16 %27 to i32
  %29 = trunc i32 %28 to i16
  %30 = load ptr, ptr %7, align 8, !tbaa !20
  %31 = load i32, ptr %9, align 4, !tbaa !9
  %32 = mul nsw i32 4, %31
  %33 = sext i32 %32 to i64
  %34 = getelementptr inbounds i16, ptr %30, i64 %33
  store i16 %29, ptr %34, align 2, !tbaa !22
  %35 = load ptr, ptr %8, align 8, !tbaa !20
  %36 = load i32, ptr %9, align 4, !tbaa !9
  %37 = mul nsw i32 3, %36
  %38 = add nsw i32 %37, 1
  %39 = sext i32 %38 to i64
  %40 = getelementptr inbounds i16, ptr %35, i64 %39
  %41 = load i16, ptr %40, align 2, !tbaa !22
  %42 = call zeroext i16 @av_bswap16(i16 noundef zeroext %41) #7
  %43 = zext i16 %42 to i32
  %44 = trunc i32 %43 to i16
  %45 = load ptr, ptr %7, align 8, !tbaa !20
  %46 = load i32, ptr %9, align 4, !tbaa !9
  %47 = mul nsw i32 4, %46
  %48 = add nsw i32 %47, 1
  %49 = sext i32 %48 to i64
  %50 = getelementptr inbounds i16, ptr %45, i64 %49
  store i16 %44, ptr %50, align 2, !tbaa !22
  %51 = load ptr, ptr %8, align 8, !tbaa !20
  %52 = load i32, ptr %9, align 4, !tbaa !9
  %53 = mul nsw i32 3, %52
  %54 = sext i32 %53 to i64
  %55 = getelementptr inbounds i16, ptr %51, i64 %54
  %56 = load i16, ptr %55, align 2, !tbaa !22
  %57 = call zeroext i16 @av_bswap16(i16 noundef zeroext %56) #7
  %58 = zext i16 %57 to i32
  %59 = trunc i32 %58 to i16
  %60 = load ptr, ptr %7, align 8, !tbaa !20
  %61 = load i32, ptr %9, align 4, !tbaa !9
  %62 = mul nsw i32 4, %61
  %63 = add nsw i32 %62, 2
  %64 = sext i32 %63 to i64
  %65 = getelementptr inbounds i16, ptr %60, i64 %64
  store i16 %59, ptr %65, align 2, !tbaa !22
  %66 = load ptr, ptr %7, align 8, !tbaa !20
  %67 = load i32, ptr %9, align 4, !tbaa !9
  %68 = mul nsw i32 4, %67
  %69 = add nsw i32 %68, 3
  %70 = sext i32 %69 to i64
  %71 = getelementptr inbounds i16, ptr %66, i64 %70
  store i16 -1, ptr %71, align 2, !tbaa !22
  br label %72

72:                                               ; preds = %19
  %73 = load i32, ptr %9, align 4, !tbaa !9
  %74 = add nsw i32 %73, 1
  store i32 %74, ptr %9, align 4, !tbaa !9
  br label %15, !llvm.loop !41

75:                                               ; preds = %15
  call void @llvm.lifetime.end.p0(i64 4, ptr %10) #5
  call void @llvm.lifetime.end.p0(i64 4, ptr %9) #5
  call void @llvm.lifetime.end.p0(i64 8, ptr %8) #5
  call void @llvm.lifetime.end.p0(i64 8, ptr %7) #5
  ret void
}